; ModuleID = '56/1556.c'
source_filename = "56/1556.c"
target datalayout = "e-m:e-p270:32:32-p271:32:32-p272:64:64-i64:64-f80:128-n8:16:32:64-S128"
target triple = "x86_64-pc-linux-gnu"

@.str = private unnamed_addr constant [3 x i8] c"%d\00", align 1
@.str.1 = private unnamed_addr constant [11 x i8] c"%d%d%d%d%d\00", align 1
@.str.2 = private unnamed_addr constant [9 x i8] c"%d%d%d%d\00", align 1
@.str.3 = private unnamed_addr constant [7 x i8] c"%d%d%d\00", align 1
@.str.4 = private unnamed_addr constant [5 x i8] c"%d%d\00", align 1
@.str.5 = private unnamed_addr constant [2 x i8] c"0\00", align 1

; Function Attrs: noinline nounwind uwtable
define dso_local void @main() #0 {
  %1 = alloca i32, align 4
  %2 = alloca i32, align 4
  %3 = alloca i32, align 4
  %4 = alloca i32, align 4
  %5 = alloca i32, align 4
  %6 = alloca i32, align 4
  %7 = call i32 (i8*, ...) @__isoc99_scanf(i8* getelementptr inbounds ([3 x i8], [3 x i8]* @.str, i64 0, i64 0), i32* %6)
  %8 = load i32, i32* %6, align 4
  %9 = srem i32 %8, 10
  store i32 %9, i32* %5, align 4
  %10 = load i32, i32* %6, align 4
  %11 = load i32, i32* %5, align 4
  %12 = sub nsw i32 %10, %11
  %13 = sdiv i32 %12, 10
  %14 = srem i32 %13, 10
  store i32 %14, i32* %4, align 4
  %15 = load i32, i32* %6, align 4
  %16 = load i32, i32* %4, align 4
  %17 = mul nsw i32 %16, 10
  %18 = sub nsw i32 %15, %17
  %19 = load i32, i32* %5, align 4
  %20 = sub nsw i32 %18, %19
  %21 = sdiv i32 %20, 100
  %22 = srem i32 %21, 10
  store i32 %22, i32* %3, align 4
  %23 = load i32, i32* %6, align 4
  %24 = load i32, i32* %4, align 4
  %25 = mul nsw i32 10, %24
  %26 = sub nsw i32 %23, %25
  %27 = load i32, i32* %5, align 4
  %28 = sub nsw i32 %26, %27
  %29 = load i32, i32* %3, align 4
  %30 = mul nsw i32 100, %29
  %31 = sub nsw i32 %28, %30
  %32 = sdiv i32 %31, 1000
  %33 = srem i32 %32, 10
  store i32 %33, i32* %2, align 4
  %34 = load i32, i32* %6, align 4
  %35 = load i32, i32* %2, align 4
  %36 = mul nsw i32 %35, 1000
  %37 = sub nsw i32 %34, %36
  %38 = load i32, i32* %3, align 4
  %39 = mul nsw i32 %38, 100
  %40 = sub nsw i32 %37, %39
  %41 = load i32, i32* %4, align 4
  %42 = mul nsw i32 %41, 10
  %43 = sub nsw i32 %40, %42
  %44 = load i32, i32* %5, align 4
  %45 = sub nsw i32 %43, %44
  %46 = sdiv i32 %45, 10000
  %47 = srem i32 %46, 10
  store i32 %47, i32* %1, align 4
  %48 = load i32, i32* %1, align 4
  %49 = icmp ne i32 %48, 0
  br i1 %49, label %50, label %57

50:                                               ; preds = %0
  %51 = load i32, i32* %5, align 4
  %52 = load i32, i32* %4, align 4
  %53 = load i32, i32* %3, align 4
  %54 = load i32, i32* %2, align 4
  %55 = load i32, i32* %1, align 4
  %56 = call i32 (i8*, ...) @printf(i8* getelementptr inbounds ([11 x i8], [11 x i8]* @.str.1, i64 0, i64 0), i32 %51, i32 %52, i32 %53, i32 %54, i32 %55)
  br label %93

57:                                               ; preds = %0
  %58 = load i32, i32* %2, align 4
  %59 = icmp ne i32 %58, 0
  br i1 %59, label %60, label %66

60:                                               ; preds = %57
  %61 = load i32, i32* %5, align 4
  %62 = load i32, i32* %4, align 4
  %63 = load i32, i32* %3, align 4
  %64 = load i32, i32* %2, align 4
  %65 = call i32 (i8*, ...) @printf(i8* getelementptr inbounds ([9 x i8], [9 x i8]* @.str.2, i64 0, i64 0), i32 %61, i32 %62, i32 %63, i32 %64)
  br label %92

66:                                               ; preds = %57
  %67 = load i32, i32* %3, align 4
  %68 = icmp ne i32 %67, 0
  br i1 %68, label %69, label %74

69:                                               ; preds = %66
  %70 = load i32, i32* %5, align 4
  %71 = load i32, i32* %4, align 4
  %72 = load i32, i32* %3, align 4
  %73 = call i32 (i8*, ...) @printf(i8* getelementptr inbounds ([7 x i8], [7 x i8]* @.str.3, i64 0, i64 0), i32 %70, i32 %71, i32 %72)
  br label %91

74:                                               ; preds = %66
  %75 = load i32, i32* %4, align 4
  %76 = icmp ne i32 %75, 0
  br i1 %76, label %77, label %81

77:                                               ; preds = %74
  %78 = load i32, i32* %5, align 4
  %79 = load i32, i32* %4, align 4
  %80 = call i32 (i8*, ...) @printf(i8* getelementptr inbounds ([5 x i8], [5 x i8]* @.str.4, i64 0, i64 0), i32 %78, i32 %79)
  br label %90

81:                                               ; preds = %74
  %82 = load i32, i32* %5, align 4
  %83 = icmp ne i32 %82, 0
  br i1 %83, label %84, label %87

84:                                               ; preds = %81
  %85 = load i32, i32* %5, align 4
  %86 = call i32 (i8*, ...) @printf(i8* getelementptr inbounds ([3 x i8], [3 x i8]* @.str, i64 0, i64 0), i32 %85)
  br label %89

87:                                               ; preds = %81
  %88 = call i32 (i8*, ...) @printf(i8* getelementptr inbounds ([2 x i8], [2 x i8]* @.str.5, i64 0, i64 0))
  br label %89

89:                                               ; preds = %87, %84
  br label %90

90:                                               ; preds = %89, %77
  br label %91

91:                                               ; preds = %90, %69
  br label %92

92:                                               ; preds = %91, %60
  br label %93

93:                                               ; preds = %92, %50
  ret void
}

declare dso_local i32 @__isoc99_scanf(i8*, ...) #1

declare dso_local i32 @printf(i8*, ...) #1


!llvm.module.flags = !{!0}
!llvm.ident = !{!1}

!0 = !{i32 1, !"wchar_size", i32 4}
!1 = !{!"clang version 10.0.0-4ubuntu1 "}
