; ModuleID = 'source-C-CXX/55/1556.c'
source_filename = "source-C-CXX/55/1556.c"
target datalayout = "e-m:e-p270:32:32-p271:32:32-p272:64:64-i64:64-f80:128-n8:16:32:64-S128"
target triple = "x86_64-pc-linux-gnu"

@.str = private unnamed_addr constant [3 x i8] c"%d\00", align 1
@.str.1 = private unnamed_addr constant [11 x i8] c"%d%d%d%d%d\00", align 1
@.str.2 = private unnamed_addr constant [9 x i8] c"%d%d%d%d\00", align 1
@.str.3 = private unnamed_addr constant [7 x i8] c"%d%d%d\00", align 1
@.str.4 = private unnamed_addr constant [5 x i8] c"%d%d\00", align 1

; Function Attrs: nofree nounwind sspstrong uwtable
define dso_local void @main() local_unnamed_addr #0 {
  %1 = alloca i32, align 4
  %2 = bitcast i32* %1 to i8*
  call void @llvm.lifetime.start.p0i8(i64 4, i8* nonnull %2) #4
  %3 = call i32 (i8*, ...) @__isoc99_scanf(i8* getelementptr inbounds ([3 x i8], [3 x i8]* @.str, i64 0, i64 0), i32* nonnull %1)
  %4 = load i32, i32* %1, align 4, !tbaa !5
  %5 = srem i32 %4, 10
  %6 = sdiv i32 %4, 10
  %7 = srem i32 %6, 10
  %8 = mul nsw i32 %7, -10
  %9 = sdiv i32 %4, 100
  %10 = srem i32 %9, 10
  %11 = mul nsw i32 %10, -100
  %12 = sdiv i32 %4, 1000
  %13 = srem i32 %12, 10
  %14 = mul nsw i32 %13, -1000
  %15 = sub i32 %4, %5
  %16 = add i32 %15, %14
  %17 = add i32 %16, %11
  %18 = add i32 %17, %8
  %19 = sdiv i32 %18, 10000
  %20 = srem i32 %19, 10
  %21 = icmp eq i32 %20, 0
  br i1 %21, label %24, label %22

22:                                               ; preds = %0
  %23 = call i32 (i8*, ...) @printf(i8* nonnull dereferenceable(1) getelementptr inbounds ([11 x i8], [11 x i8]* @.str.1, i64 0, i64 0), i32 %5, i32 %7, i32 %10, i32 %13, i32 %20)
  br label %42

24:                                               ; preds = %0
  %25 = icmp eq i32 %13, 0
  br i1 %25, label %28, label %26

26:                                               ; preds = %24
  %27 = call i32 (i8*, ...) @printf(i8* nonnull dereferenceable(1) getelementptr inbounds ([9 x i8], [9 x i8]* @.str.2, i64 0, i64 0), i32 %5, i32 %7, i32 %10, i32 %13)
  br label %42

28:                                               ; preds = %24
  %29 = icmp eq i32 %10, 0
  br i1 %29, label %32, label %30

30:                                               ; preds = %28
  %31 = call i32 (i8*, ...) @printf(i8* nonnull dereferenceable(1) getelementptr inbounds ([7 x i8], [7 x i8]* @.str.3, i64 0, i64 0), i32 %5, i32 %7, i32 %10)
  br label %42

32:                                               ; preds = %28
  %33 = icmp eq i32 %7, 0
  br i1 %33, label %36, label %34

34:                                               ; preds = %32
  %35 = call i32 (i8*, ...) @printf(i8* nonnull dereferenceable(1) getelementptr inbounds ([5 x i8], [5 x i8]* @.str.4, i64 0, i64 0), i32 %5, i32 %7)
  br label %42

36:                                               ; preds = %32
  %37 = icmp eq i32 %5, 0
  br i1 %37, label %40, label %38

38:                                               ; preds = %36
  %39 = call i32 (i8*, ...) @printf(i8* nonnull dereferenceable(1) getelementptr inbounds ([3 x i8], [3 x i8]* @.str, i64 0, i64 0), i32 %5)
  br label %42

40:                                               ; preds = %36
  %41 = call i32 @putchar(i32 48)
  br label %42

42:                                               ; preds = %26, %34, %40, %38, %30, %22
  call void @llvm.lifetime.end.p0i8(i64 4, i8* nonnull %2) #4
  ret void
}

; Function Attrs: argmemonly mustprogress nofree nosync nounwind willreturn
declare void @llvm.lifetime.start.p0i8(i64 immarg, i8* nocapture) #1

; Function Attrs: nofree nounwind
declare noundef i32 @__isoc99_scanf(i8* nocapture noundef readonly, ...) local_unnamed_addr #2

; Function Attrs: nofree nounwind
declare noundef i32 @printf(i8* nocapture noundef readonly, ...) local_unnamed_addr #2

; Function Attrs: argmemonly mustprogress nofree nosync nounwind willreturn
declare void @llvm.lifetime.end.p0i8(i64 immarg, i8* nocapture) #1

; Function Attrs: nofree nounwind
declare noundef i32 @putchar(i32 noundef) local_unnamed_addr #3


!llvm.module.flags = !{!0, !1, !2, !3}
!llvm.ident = !{!4}

!0 = !{i32 1, !"wchar_size", i32 4}
!1 = !{i32 7, !"PIC Level", i32 2}
!2 = !{i32 7, !"PIE Level", i32 2}
!3 = !{i32 7, !"uwtable", i32 1}
!4 = !{!"clang version 13.0.0"}
!5 = !{!6, !6, i64 0}
!6 = !{!"int", !7, i64 0}
!7 = !{!"omnipotent char", !8, i64 0}
!8 = !{!"Simple C/C++ TBAA"}
